target datalayout = "e-m:e-p270:32:32-p271:32:32-p272:64:64-i64:64-i128:128-f80:128-n8:16:32:64-S128"
target triple = "x86_64-unknown-linux-gnu"

%"struct.std::_Rb_tree_header" = type { %"struct.std::_Rb_tree_node_base", i64 }
%"struct.std::_Rb_tree_node_base" = type { i32, ptr, ptr, ptr }
%"class.std::__cxx11::basic_string" = type { %"struct.std::__cxx11::basic_string<char>::_Alloc_hider", i64, %union.anon }
%"struct.std::__cxx11::basic_string<char>::_Alloc_hider" = type { ptr }
%union.anon = type { i64, [8 x i8] }
%struct.ExceptionSwallower = type { i8 }
%"struct.Assimp::BatchLoader::PropertyMap" = type { %"class.std::map.9", %"class.std::map.15", %"class.std::map.20", %"class.std::map.25" }
%"class.std::map.9" = type { %"class.std::_Rb_tree.10" }
%"class.std::_Rb_tree.10" = type { %"struct.std::_Rb_tree<unsigned int, std::pair<const unsigned int, int>, std::_Select1st<std::pair<const unsigned int, int>>, std::less<unsigned int>>::_Rb_tree_impl" }
%"struct.std::_Rb_tree<unsigned int, std::pair<const unsigned int, int>, std::_Select1st<std::pair<const unsigned int, int>>, std::less<unsigned int>>::_Rb_tree_impl" = type { %"struct.std::_Rb_tree_key_compare.14", %"struct.std::_Rb_tree_header" }
%"struct.std::_Rb_tree_key_compare.14" = type { %"struct.std::less" }
%"struct.std::less" = type { i8 }
%"class.std::map.15" = type { %"class.std::_Rb_tree.16" }
%"class.std::_Rb_tree.16" = type { %"struct.std::_Rb_tree<unsigned int, std::pair<const unsigned int, float>, std::_Select1st<std::pair<const unsigned int, float>>, std::less<unsigned int>>::_Rb_tree_impl" }
%"struct.std::_Rb_tree<unsigned int, std::pair<const unsigned int, float>, std::_Select1st<std::pair<const unsigned int, float>>, std::less<unsigned int>>::_Rb_tree_impl" = type { %"struct.std::_Rb_tree_key_compare.14", %"struct.std::_Rb_tree_header" }
%"class.std::map.20" = type { %"class.std::_Rb_tree.21" }
%"class.std::_Rb_tree.21" = type { %"struct.std::_Rb_tree<unsigned int, std::pair<const unsigned int, std::__cxx11::basic_string<char>>, std::_Select1st<std::pair<const unsigned int, std::__cxx11::basic_string<char>>>, std::less<unsigned int>>::_Rb_tree_impl" }
%"struct.std::_Rb_tree<unsigned int, std::pair<const unsigned int, std::__cxx11::basic_string<char>>, std::_Select1st<std::pair<const unsigned int, std::__cxx11::basic_string<char>>>, std::less<unsigned int>>::_Rb_tree_impl" = type { %"struct.std::_Rb_tree_key_compare.14", %"struct.std::_Rb_tree_header" }
%"class.std::map.25" = type { %"class.std::_Rb_tree.26" }
%"class.std::_Rb_tree.26" = type { %"struct.std::_Rb_tree<unsigned int, std::pair<const unsigned int, aiMatrix4x4t<float>>, std::_Select1st<std::pair<const unsigned int, aiMatrix4x4t<float>>>, std::less<unsigned int>>::_Rb_tree_impl" }
%"struct.std::_Rb_tree<unsigned int, std::pair<const unsigned int, aiMatrix4x4t<float>>, std::_Select1st<std::pair<const unsigned int, aiMatrix4x4t<float>>>, std::less<unsigned int>>::_Rb_tree_impl" = type { %"struct.std::_Rb_tree_key_compare.14", %"struct.std::_Rb_tree_header" }
%"class.Assimp::ImporterPimpl" = type { ptr, i8, ptr, i8, %"class.std::vector.30", %"class.std::vector.35", ptr, %"class.std::__cxx11::basic_string", %"class.std::__exception_ptr::exception_ptr", %"class.std::map.9", %"class.std::map.15", %"class.std::map.20", %"class.std::map.25", %"class.std::map.40", i8, ptr }
%"class.std::vector.30" = type { %"struct.std::_Vector_base.31" }
%"struct.std::_Vector_base.31" = type { %"struct.std::_Vector_base<Assimp::BaseImporter *, std::allocator<Assimp::BaseImporter *>>::_Vector_impl" }
%"struct.std::_Vector_base<Assimp::BaseImporter *, std::allocator<Assimp::BaseImporter *>>::_Vector_impl" = type { %"struct.std::_Vector_base<Assimp::BaseImporter *, std::allocator<Assimp::BaseImporter *>>::_Vector_impl_data" }
%"struct.std::_Vector_base<Assimp::BaseImporter *, std::allocator<Assimp::BaseImporter *>>::_Vector_impl_data" = type { ptr, ptr, ptr }
%"class.std::vector.35" = type { %"struct.std::_Vector_base.36" }
%"struct.std::_Vector_base.36" = type { %"struct.std::_Vector_base<Assimp::BaseProcess *, std::allocator<Assimp::BaseProcess *>>::_Vector_impl" }
%"struct.std::_Vector_base<Assimp::BaseProcess *, std::allocator<Assimp::BaseProcess *>>::_Vector_impl" = type { %"struct.std::_Vector_base<Assimp::BaseProcess *, std::allocator<Assimp::BaseProcess *>>::_Vector_impl_data" }
%"struct.std::_Vector_base<Assimp::BaseProcess *, std::allocator<Assimp::BaseProcess *>>::_Vector_impl_data" = type { ptr, ptr, ptr }
%"class.std::__exception_ptr::exception_ptr" = type { ptr }
%"class.std::map.40" = type { %"class.std::_Rb_tree.41" }
%"class.std::_Rb_tree.41" = type { %"struct.std::_Rb_tree<unsigned int, std::pair<const unsigned int, void *>, std::_Select1st<std::pair<const unsigned int, void *>>, std::less<unsigned int>>::_Rb_tree_impl" }
%"struct.std::_Rb_tree<unsigned int, std::pair<const unsigned int, void *>, std::_Select1st<std::pair<const unsigned int, void *>>, std::less<unsigned int>>::_Rb_tree_impl" = type { %"struct.std::_Rb_tree_key_compare.14", %"struct.std::_Rb_tree_header" }
%"struct.Assimp::ScenePrivateData" = type <{ ptr, i32, i8, [3 x i8] }>
%"class.Assimp::Importer" = type { ptr }
%struct.aiScene = type { i32, ptr, i32, ptr, i32, ptr, i32, ptr, i32, ptr, i32, ptr, i32, ptr, ptr, %struct.aiString, i32, ptr, ptr }
%struct.aiString = type { i32, [1024 x i8] }

@_ZN6AssimpL16gLastErrorStringB5cxx11E = internal global %"class.std::__cxx11::basic_string" zeroinitializer, align 8

; Function Attrs: noreturn nounwind uwtable
define linkonce_odr hidden void @__clang_call_terminate(ptr noundef %0) #9 comdat {
  %2 = call ptr @__cxa_begin_catch(ptr %0) #3
  call void @_ZSt9terminatev() #20
  unreachable
}

; Function Attrs: mustprogress nounwind uwtable
define linkonce_odr hidden noundef ptr @_ZN6Assimp9ScenePrivEPK7aiScene(ptr noundef %in) #0 comdat {
entry:
  %retval = alloca ptr, align 8
  %in.addr = alloca ptr, align 8
  store ptr %in, ptr %in.addr, align 8
  %0 = load ptr, ptr %in.addr, align 8
  %cmp = icmp eq ptr null, %0
  br i1 %cmp, label %if.then, label %if.end

if.then:                                          ; preds = %entry
  store ptr null, ptr %retval, align 8
  br label %return

if.end:                                           ; preds = %entry
  %1 = load ptr, ptr %in.addr, align 8
  %mPrivate = getelementptr inbounds %struct.aiScene, ptr %1, i32 0, i32 18
  %2 = load ptr, ptr %mPrivate, align 8
  store ptr %2, ptr %retval, align 8
  br label %return

return:                                           ; preds = %if.end, %if.then
  %3 = load ptr, ptr %retval, align 8
  ret ptr %3
}

; Function Attrs: mustprogress nounwind uwtable
define linkonce_odr hidden noundef ptr @_ZNK18ExceptionSwallowerIPK7aiSceneEclEv(ptr noundef nonnull align 1 dereferenceable(1) %this) #0 comdat align 2 {
entry:
  %this.addr = alloca ptr, align 8
  store ptr %this, ptr %this.addr, align 8
  ret ptr null
}

; Function Attrs: mustprogress uwtable
define linkonce_odr hidden noundef nonnull align 8 dereferenceable(48) ptr @_ZNSt3mapIj12aiMatrix4x4tIfESt4lessIjESaISt4pairIKjS1_EEEaSERKS8_(ptr noundef nonnull align 8 dereferenceable(48) %this, ptr noundef nonnull align 8 dereferenceable(48) %0) #5 comdat align 2 {
entry:
  %this.addr = alloca ptr, align 8
  %.addr = alloca ptr, align 8
  store ptr %this, ptr %this.addr, align 8
  store ptr %0, ptr %.addr, align 8
  %this1 = load ptr, ptr %this.addr, align 8
  %_M_t = getelementptr inbounds %"class.std::map.25", ptr %this1, i32 0, i32 0
  %1 = load ptr, ptr %.addr, align 8
  %_M_t2 = getelementptr inbounds %"class.std::map.25", ptr %1, i32 0, i32 0
  %call = call noundef nonnull align 8 dereferenceable(48) ptr @_ZNSt8_Rb_treeIjSt4pairIKj12aiMatrix4x4tIfEESt10_Select1stIS4_ESt4lessIjESaIS4_EEaSERKSA_(ptr noundef nonnull align 8 dereferenceable(48) %_M_t, ptr noundef nonnull align 8 dereferenceable(48) %_M_t2)
  ret ptr %this1
}

; Function Attrs: mustprogress uwtable
define linkonce_odr noundef nonnull align 8 dereferenceable(48) ptr @_ZNSt3mapIjNSt7__cxx1112basic_stringIcSt11char_traitsIcESaIcEEESt4lessIjESaISt4pairIKjS5_EEEaSERKSC_(ptr noundef nonnull align 8 dereferenceable(48) %this, ptr noundef nonnull align 8 dereferenceable(48) %0) #5 comdat align 2 {
entry:
  %this.addr = alloca ptr, align 8
  %.addr = alloca ptr, align 8
  store ptr %this, ptr %this.addr, align 8
  store ptr %0, ptr %.addr, align 8
  %this1 = load ptr, ptr %this.addr, align 8
  %_M_t = getelementptr inbounds %"class.std::map.20", ptr %this1, i32 0, i32 0
  %1 = load ptr, ptr %.addr, align 8
  %_M_t2 = getelementptr inbounds %"class.std::map.20", ptr %1, i32 0, i32 0
  %call = call noundef nonnull align 8 dereferenceable(48) ptr @_ZNSt8_Rb_treeIjSt4pairIKjNSt7__cxx1112basic_stringIcSt11char_traitsIcESaIcEEEESt10_Select1stIS8_ESt4lessIjESaIS8_EEaSERKSE_(ptr noundef nonnull align 8 dereferenceable(48) %_M_t, ptr noundef nonnull align 8 dereferenceable(48) %_M_t2)
  ret ptr %this1
}

; Function Attrs: mustprogress uwtable
define linkonce_odr noundef nonnull align 8 dereferenceable(48) ptr @_ZNSt3mapIjfSt4lessIjESaISt4pairIKjfEEEaSERKS6_(ptr noundef nonnull align 8 dereferenceable(48) %this, ptr noundef nonnull align 8 dereferenceable(48) %0) #5 comdat align 2 {
entry:
  %this.addr = alloca ptr, align 8
  %.addr = alloca ptr, align 8
  store ptr %this, ptr %this.addr, align 8
  store ptr %0, ptr %.addr, align 8
  %this1 = load ptr, ptr %this.addr, align 8
  %_M_t = getelementptr inbounds %"class.std::map.15", ptr %this1, i32 0, i32 0
  %1 = load ptr, ptr %.addr, align 8
  %_M_t2 = getelementptr inbounds %"class.std::map.15", ptr %1, i32 0, i32 0
  %call = call noundef nonnull align 8 dereferenceable(48) ptr @_ZNSt8_Rb_treeIjSt4pairIKjfESt10_Select1stIS2_ESt4lessIjESaIS2_EEaSERKS8_(ptr noundef nonnull align 8 dereferenceable(48) %_M_t, ptr noundef nonnull align 8 dereferenceable(48) %_M_t2)
  ret ptr %this1
}

; Function Attrs: mustprogress uwtable
define linkonce_odr noundef nonnull align 8 dereferenceable(48) ptr @_ZNSt3mapIjiSt4lessIjESaISt4pairIKjiEEEaSERKS6_(ptr noundef nonnull align 8 dereferenceable(48) %this, ptr noundef nonnull align 8 dereferenceable(48) %0) #5 comdat align 2 {
entry:
  %this.addr = alloca ptr, align 8
  %.addr = alloca ptr, align 8
  store ptr %this, ptr %this.addr, align 8
  store ptr %0, ptr %.addr, align 8
  %this1 = load ptr, ptr %this.addr, align 8
  %_M_t = getelementptr inbounds %"class.std::map.9", ptr %this1, i32 0, i32 0
  %1 = load ptr, ptr %.addr, align 8
  %_M_t2 = getelementptr inbounds %"class.std::map.9", ptr %1, i32 0, i32 0
  %call = call noundef nonnull align 8 dereferenceable(48) ptr @_ZNSt8_Rb_treeIjSt4pairIKjiESt10_Select1stIS2_ESt4lessIjESaIS2_EEaSERKS8_(ptr noundef nonnull align 8 dereferenceable(48) %_M_t, ptr noundef nonnull align 8 dereferenceable(48) %_M_t2)
  ret ptr %this1
}

; Function Attrs: mustprogress nounwind uwtable
define linkonce_odr noundef ptr @_ZN6Assimp8Importer5PimplEv(ptr noundef nonnull align 8 dereferenceable(8) %this) #0 comdat align 2 {
entry:
  %this.addr = alloca ptr, align 8
  store ptr %this, ptr %this.addr, align 8
  %this1 = load ptr, ptr %this.addr, align 8
  %pimpl = getelementptr inbounds %"class.Assimp::Importer", ptr %this1, i32 0, i32 0
  %0 = load ptr, ptr %pimpl, align 8
  ret ptr %0
}

; Function Attrs: mustprogress uwtable
define ptr @aiImportFileFromMemoryWithProperties(ptr noundef %pBuffer, i32 noundef %pLength, i32 noundef %pFlags, ptr noundef %pHint, ptr noundef %props) #5 personality ptr @__gxx_personality_v0 {
entry:
  %retval = alloca ptr, align 8
  %pBuffer.addr = alloca ptr, align 8
  %pLength.addr = alloca i32, align 4
  %pFlags.addr = alloca i32, align 4
  %pHint.addr = alloca ptr, align 8
  %props.addr = alloca ptr, align 8
  %scene = alloca ptr, align 8
  %imp = alloca ptr, align 8
  %exn.slot = alloca ptr, align 8
  %ehselector.slot = alloca i32, align 4
  %pp = alloca ptr, align 8
  %pimpl = alloca ptr, align 8
  %priv = alloca ptr, align 8
  %ref.tmp = alloca %struct.ExceptionSwallower, align 1
  store ptr %pBuffer, ptr %pBuffer.addr, align 8
  store i32 %pLength, ptr %pLength.addr, align 4
  store i32 %pFlags, ptr %pFlags.addr, align 4
  store ptr %pHint, ptr %pHint.addr, align 8
  store ptr %props, ptr %props.addr, align 8
  store ptr null, ptr %scene, align 8
  %call = invoke noalias noundef nonnull ptr @_Znwm(i64 noundef 8) #21
          to label %invoke.cont unwind label %lpad

invoke.cont:                                      ; preds = %entry
  invoke void @_ZN6Assimp8ImporterC1Ev(ptr noundef nonnull align 8 dereferenceable(8) %call)
          to label %invoke.cont2 unwind label %lpad1

invoke.cont2:                                     ; preds = %invoke.cont
  store ptr %call, ptr %imp, align 8
  %0 = load ptr, ptr %props.addr, align 8
  %tobool = icmp ne ptr %0, null
  br i1 %tobool, label %if.then, label %if.end

if.then:                                          ; preds = %invoke.cont2
  %1 = load ptr, ptr %props.addr, align 8
  store ptr %1, ptr %pp, align 8
  %2 = load ptr, ptr %imp, align 8
  %call4 = invoke noundef ptr @_ZN6Assimp8Importer5PimplEv(ptr noundef nonnull align 8 dereferenceable(8) %2)
          to label %invoke.cont3 unwind label %lpad

invoke.cont3:                                     ; preds = %if.then
  store ptr %call4, ptr %pimpl, align 8
  %3 = load ptr, ptr %pp, align 8
  %ints = getelementptr inbounds %"struct.Assimp::BatchLoader::PropertyMap", ptr %3, i32 0, i32 0
  %4 = load ptr, ptr %pimpl, align 8
  %mIntProperties = getelementptr inbounds %"class.Assimp::ImporterPimpl", ptr %4, i32 0, i32 9
  %call6 = invoke noundef nonnull align 8 dereferenceable(48) ptr @_ZNSt3mapIjiSt4lessIjESaISt4pairIKjiEEEaSERKS6_(ptr noundef nonnull align 8 dereferenceable(48) %mIntProperties, ptr noundef nonnull align 8 dereferenceable(48) %ints)
          to label %invoke.cont5 unwind label %lpad

invoke.cont5:                                     ; preds = %invoke.cont3
  %5 = load ptr, ptr %pp, align 8
  %floats = getelementptr inbounds %"struct.Assimp::BatchLoader::PropertyMap", ptr %5, i32 0, i32 1
  %6 = load ptr, ptr %pimpl, align 8
  %mFloatProperties = getelementptr inbounds %"class.Assimp::ImporterPimpl", ptr %6, i32 0, i32 10
  %call8 = invoke noundef nonnull align 8 dereferenceable(48) ptr @_ZNSt3mapIjfSt4lessIjESaISt4pairIKjfEEEaSERKS6_(ptr noundef nonnull align 8 dereferenceable(48) %mFloatProperties, ptr noundef nonnull align 8 dereferenceable(48) %floats)
          to label %invoke.cont7 unwind label %lpad

invoke.cont7:                                     ; preds = %invoke.cont5
  %7 = load ptr, ptr %pp, align 8
  %strings = getelementptr inbounds %"struct.Assimp::BatchLoader::PropertyMap", ptr %7, i32 0, i32 2
  %8 = load ptr, ptr %pimpl, align 8
  %mStringProperties = getelementptr inbounds %"class.Assimp::ImporterPimpl", ptr %8, i32 0, i32 11
  %call10 = invoke noundef nonnull align 8 dereferenceable(48) ptr @_ZNSt3mapIjNSt7__cxx1112basic_stringIcSt11char_traitsIcESaIcEEESt4lessIjESaISt4pairIKjS5_EEEaSERKSC_(ptr noundef nonnull align 8 dereferenceable(48) %mStringProperties, ptr noundef nonnull align 8 dereferenceable(48) %strings)
          to label %invoke.cont9 unwind label %lpad

invoke.cont9:                                     ; preds = %invoke.cont7
  %9 = load ptr, ptr %pp, align 8
  %matrices = getelementptr inbounds %"struct.Assimp::BatchLoader::PropertyMap", ptr %9, i32 0, i32 3
  %10 = load ptr, ptr %pimpl, align 8
  %mMatrixProperties = getelementptr inbounds %"class.Assimp::ImporterPimpl", ptr %10, i32 0, i32 12
  %call12 = invoke noundef nonnull align 8 dereferenceable(48) ptr @_ZNSt3mapIj12aiMatrix4x4tIfESt4lessIjESaISt4pairIKjS1_EEEaSERKS8_(ptr noundef nonnull align 8 dereferenceable(48) %mMatrixProperties, ptr noundef nonnull align 8 dereferenceable(48) %matrices)
          to label %invoke.cont11 unwind label %lpad

invoke.cont11:                                    ; preds = %invoke.cont9
  br label %if.end

lpad:                                             ; preds = %invoke.cont19, %if.else, %if.then16, %if.end, %invoke.cont9, %invoke.cont7, %invoke.cont5, %invoke.cont3, %if.then, %entry
  %11 = landingpad { ptr, i32 }
          catch ptr null
  %12 = extractvalue { ptr, i32 } %11, 0
  store ptr %12, ptr %exn.slot, align 8
  %13 = extractvalue { ptr, i32 } %11, 1
  store i32 %13, ptr %ehselector.slot, align 4
  br label %catch

lpad1:                                            ; preds = %invoke.cont
  %14 = landingpad { ptr, i32 }
          catch ptr null
  %15 = extractvalue { ptr, i32 } %14, 0
  store ptr %15, ptr %exn.slot, align 8
  %16 = extractvalue { ptr, i32 } %14, 1
  store i32 %16, ptr %ehselector.slot, align 4
  call void @_ZdlPv(ptr noundef %call) #22
  br label %catch

catch:                                            ; preds = %lpad1, %lpad
  %exn = load ptr, ptr %exn.slot, align 8
  %17 = call ptr @__cxa_begin_catch(ptr %exn) #3
  %call26 = invoke noundef ptr @_ZNK18ExceptionSwallowerIPK7aiSceneEclEv(ptr noundef nonnull align 1 dereferenceable(1) %ref.tmp)
          to label %invoke.cont25 unwind label %lpad24

invoke.cont25:                                    ; preds = %catch
  store ptr %call26, ptr %retval, align 8
  call void @__cxa_end_catch()
  br label %return

if.end:                                           ; preds = %invoke.cont11, %invoke.cont2
  %18 = load ptr, ptr %imp, align 8
  %19 = load ptr, ptr %pBuffer.addr, align 8
  %20 = load i32, ptr %pLength.addr, align 4
  %conv = zext i32 %20 to i64
  %21 = load i32, ptr %pFlags.addr, align 4
  %22 = load ptr, ptr %pHint.addr, align 8
  %call14 = invoke noundef ptr @_ZN6Assimp8Importer18ReadFileFromMemoryEPKvmjPKc(ptr noundef nonnull align 8 dereferenceable(8) %18, ptr noundef %19, i64 noundef %conv, i32 noundef %21, ptr noundef %22)
          to label %invoke.cont13 unwind label %lpad

invoke.cont13:                                    ; preds = %if.end
  store ptr %call14, ptr %scene, align 8
  %23 = load ptr, ptr %scene, align 8
  %tobool15 = icmp ne ptr %23, null
  br i1 %tobool15, label %if.then16, label %if.else

if.then16:                                        ; preds = %invoke.cont13
  %24 = load ptr, ptr %scene, align 8
  %call18 = invoke noundef ptr @_ZN6Assimp9ScenePrivEPK7aiScene(ptr noundef %24)
          to label %invoke.cont17 unwind label %lpad

invoke.cont17:                                    ; preds = %if.then16
  store ptr %call18, ptr %priv, align 8
  %25 = load ptr, ptr %imp, align 8
  %26 = load ptr, ptr %priv, align 8
  %mOrigImporter = getelementptr inbounds %"struct.Assimp::ScenePrivateData", ptr %26, i32 0, i32 0
  store ptr %25, ptr %mOrigImporter, align 8
  br label %if.end23

if.else:                                          ; preds = %invoke.cont13
  %27 = load ptr, ptr %imp, align 8
  %call20 = invoke noundef ptr @_ZNK6Assimp8Importer14GetErrorStringEv(ptr noundef nonnull align 8 dereferenceable(8) %27)
          to label %invoke.cont19 unwind label %lpad

invoke.cont19:                                    ; preds = %if.else
  %call22 = invoke noundef nonnull align 8 dereferenceable(32) ptr @_ZNSt7__cxx1112basic_stringIcSt11char_traitsIcESaIcEEaSEPKc(ptr noundef nonnull align 8 dereferenceable(32) @_ZN6AssimpL16gLastErrorStringB5cxx11E, ptr noundef %call20)
          to label %invoke.cont21 unwind label %lpad

invoke.cont21:                                    ; preds = %invoke.cont19
  %28 = load ptr, ptr %imp, align 8
  %isnull = icmp eq ptr %28, null
  br i1 %isnull, label %delete.end, label %delete.notnull

delete.notnull:                                   ; preds = %invoke.cont21
  call void @_ZN6Assimp8ImporterD1Ev(ptr noundef nonnull align 8 dereferenceable(8) %28) #3
  call void @_ZdlPv(ptr noundef %28) #22
  br label %delete.end

delete.end:                                       ; preds = %delete.notnull, %invoke.cont21
  br label %if.end23

if.end23:                                         ; preds = %delete.end, %invoke.cont17
  br label %try.cont

lpad24:                                           ; preds = %catch
  %29 = landingpad { ptr, i32 }
          cleanup
  %30 = extractvalue { ptr, i32 } %29, 0
  store ptr %30, ptr %exn.slot, align 8
  %31 = extractvalue { ptr, i32 } %29, 1
  store i32 %31, ptr %ehselector.slot, align 4
  invoke void @__cxa_end_catch()
          to label %invoke.cont27 unwind label %terminate.lpad

invoke.cont27:                                    ; preds = %lpad24
  br label %eh.resume

try.cont:                                         ; preds = %if.end23
  %32 = load ptr, ptr %scene, align 8
  store ptr %32, ptr %retval, align 8
  br label %return

return:                                           ; preds = %try.cont, %invoke.cont25
  %33 = load ptr, ptr %retval, align 8
  ret ptr %33

eh.resume:                                        ; preds = %invoke.cont27
  %exn28 = load ptr, ptr %exn.slot, align 8
  %sel = load i32, ptr %ehselector.slot, align 4
  %lpad.val = insertvalue { ptr, i32 } poison, ptr %exn28, 0
  %lpad.val29 = insertvalue { ptr, i32 } %lpad.val, i32 %sel, 1
  resume { ptr, i32 } %lpad.val29

terminate.lpad:                                   ; preds = %lpad24
  %34 = landingpad { ptr, i32 }
          catch ptr null
  %35 = extractvalue { ptr, i32 } %34, 0
  call void @__clang_call_terminate(ptr %35) #20
  unreachable
}