; Function Attrs: mustprogress uwtable
define noundef ptr @aiImportFileFromMemoryWithProperties(ptr noundef %pBuffer, i32 noundef %pLength, i32 noundef %pFlags, ptr noundef %pHint, ptr noundef %props) local_unnamed_addr #3 personality ptr @__gxx_personality_v0 {
entry:
  %call = invoke noalias noundef nonnull dereferenceable(8) ptr @_Znwm(i64 noundef 8) #43
          to label %invoke.cont unwind label %lpad

invoke.cont:                                      ; preds = %entry
  invoke void @_ZN6Assimp8ImporterC1Ev(ptr noundef nonnull align 8 dereferenceable(8) %call)
          to label %invoke.cont2 unwind label %lpad1

invoke.cont2:                                     ; preds = %invoke.cont
  %tobool.not = icmp eq ptr %props, null
  br i1 %tobool.not, label %if.end, label %if.then

if.then:                                          ; preds = %invoke.cont2
  %0 = load ptr, ptr %call, align 8
  %mIntProperties = getelementptr inbounds i8, ptr %0, i64 128
  %call.i14 = invoke noundef nonnull align 8 dereferenceable(48) ptr @_ZNSt8_Rb_treeIjSt4pairIKjiESt10_Select1stIS2_ESt4lessIjESaIS2_EEaSERKS8_(ptr noundef nonnull align 8 dereferenceable(48) %mIntProperties, ptr noundef nonnull align 8 dereferenceable(48) %props)
          to label %invoke.cont5 unwind label %lpad

invoke.cont5:                                     ; preds = %if.then
  %floats = getelementptr inbounds i8, ptr %props, i64 48
  %mFloatProperties = getelementptr inbounds i8, ptr %0, i64 176
  %call.i15 = invoke noundef nonnull align 8 dereferenceable(48) ptr @_ZNSt8_Rb_treeIjSt4pairIKjfESt10_Select1stIS2_ESt4lessIjESaIS2_EEaSERKS8_(ptr noundef nonnull align 8 dereferenceable(48) %mFloatProperties, ptr noundef nonnull align 8 dereferenceable(48) %floats)
          to label %invoke.cont7 unwind label %lpad

invoke.cont7:                                     ; preds = %invoke.cont5
  %strings = getelementptr inbounds i8, ptr %props, i64 96
  %mStringProperties = getelementptr inbounds i8, ptr %0, i64 224
  %call.i16 = invoke noundef nonnull align 8 dereferenceable(48) ptr @_ZNSt8_Rb_treeIjSt4pairIKjNSt7__cxx1112basic_stringIcSt11char_traitsIcESaIcEEEESt10_Select1stIS8_ESt4lessIjESaIS8_EEaSERKSE_(ptr noundef nonnull align 8 dereferenceable(48) %mStringProperties, ptr noundef nonnull align 8 dereferenceable(48) %strings)
          to label %invoke.cont9 unwind label %lpad

invoke.cont9:                                     ; preds = %invoke.cont7
  %matrices = getelementptr inbounds i8, ptr %props, i64 144
  %mMatrixProperties = getelementptr inbounds i8, ptr %0, i64 272
  %call.i17 = invoke noundef nonnull align 8 dereferenceable(48) ptr @_ZNSt8_Rb_treeIjSt4pairIKj12aiMatrix4x4tIfEESt10_Select1stIS4_ESt4lessIjESaIS4_EEaSERKSA_(ptr noundef nonnull align 8 dereferenceable(48) %mMatrixProperties, ptr noundef nonnull align 8 dereferenceable(48) %matrices)
          to label %if.end unwind label %lpad

lpad:                                             ; preds = %invoke.cont9, %invoke.cont7, %invoke.cont5, %if.then, %invoke.cont19, %if.else, %if.end, %entry
  %1 = landingpad { ptr, i32 }
          catch ptr null
  br label %catch

lpad1:                                            ; preds = %invoke.cont
  %2 = landingpad { ptr, i32 }
          catch ptr null
  tail call void @_ZdlPv(ptr noundef nonnull %call) #42
  br label %catch

catch:                                            ; preds = %lpad1, %lpad
  %.pn = phi { ptr, i32 } [ %1, %lpad ], [ %2, %lpad1 ]
  %exn.slot.0 = extractvalue { ptr, i32 } %.pn, 0
  %3 = tail call ptr @__cxa_begin_catch(ptr %exn.slot.0) #44
  tail call void @__cxa_end_catch()
  br label %return

if.end:                                           ; preds = %invoke.cont9, %invoke.cont2
  %conv = zext i32 %pLength to i64
  %call14 = invoke noundef ptr @_ZN6Assimp8Importer18ReadFileFromMemoryEPKvmjPKc(ptr noundef nonnull align 8 dereferenceable(8) %call, ptr noundef %pBuffer, i64 noundef %conv, i32 noundef %pFlags, ptr noundef %pHint)
          to label %invoke.cont13 unwind label %lpad

invoke.cont13:                                    ; preds = %if.end
  %tobool15.not = icmp eq ptr %call14, null
  br i1 %tobool15.not, label %if.else, label %_ZN6Assimp9ScenePrivEPK7aiScene.exit

_ZN6Assimp9ScenePrivEPK7aiScene.exit:             ; preds = %invoke.cont13
  %mPrivate.i = getelementptr inbounds i8, ptr %call14, i64 1160
  %4 = load ptr, ptr %mPrivate.i, align 8
  store ptr %call, ptr %4, align 8
  br label %return

if.else:                                          ; preds = %invoke.cont13
  %call20 = invoke noundef ptr @_ZNK6Assimp8Importer14GetErrorStringEv(ptr noundef nonnull align 8 dereferenceable(8) %call)
          to label %invoke.cont19 unwind label %lpad

invoke.cont19:                                    ; preds = %if.else
  %call22 = invoke noundef nonnull align 8 dereferenceable(32) ptr @_ZNSt7__cxx1112basic_stringIcSt11char_traitsIcESaIcEEaSEPKc(ptr noundef nonnull align 8 dereferenceable(32) @_ZN6AssimpL16gLastErrorStringB5cxx11E, ptr noundef %call20)
          to label %delete.notnull unwind label %lpad

delete.notnull:                                   ; preds = %invoke.cont19
  tail call void @_ZN6Assimp8ImporterD1Ev(ptr noundef nonnull align 8 dereferenceable(8) %call) #44
  tail call void @_ZdlPv(ptr noundef nonnull %call) #42
  br label %return

return:                                           ; preds = %delete.notnull, %_ZN6Assimp9ScenePrivEPK7aiScene.exit, %catch
  %retval.0 = phi ptr [ null, %catch ], [ %call14, %_ZN6Assimp9ScenePrivEPK7aiScene.exit ], [ null, %delete.notnull ]
  ret ptr %retval.0
}